target datalayout = "e-m:e-p270:32:32-p271:32:32-p272:64:64-i64:64-i128:128-f80:128-n8:16:32:64-S128"
target triple = "x86_64-pc-linux-gnu"

%struct.gmx_ana_selmethod_t = type { ptr, i32, i32, i32, ptr, ptr, ptr, ptr, ptr, ptr, ptr, ptr, ptr, %struct.gmx_ana_selmethod_help_t }
%struct.gmx_ana_selmethod_help_t = type { ptr, ptr, i32, ptr }
%"class.std::shared_ptr.0" = type { %"class.std::__shared_ptr.1" }
%"class.std::__shared_ptr.1" = type { ptr, %"class.std::__shared_count" }
%"class.std::__shared_count" = type { ptr }
%"class.std::unique_ptr" = type { %"struct.std::__uniq_ptr_data" }
%"struct.std::__uniq_ptr_data" = type { %"class.std::__uniq_ptr_impl" }
%"class.std::__uniq_ptr_impl" = type { %"class.std::tuple" }
%"class.std::tuple" = type { %"struct.std::_Tuple_impl" }
%"struct.std::_Tuple_impl" = type { %"struct.std::_Head_base.10" }
%"struct.std::_Head_base.10" = type { ptr }
%"class.std::__cxx11::_List_base" = type { %"struct.std::__cxx11::_List_base<gmx::SelectionParserValue, std::allocator<gmx::SelectionParserValue>>::_List_impl" }
%"struct.std::__cxx11::_List_base<gmx::SelectionParserValue, std::allocator<gmx::SelectionParserValue>>::_List_impl" = type { %"struct.std::__detail::_List_node_header" }
%"struct.std::__detail::_List_node_header" = type { %"struct.std::__detail::_List_node_base", i64 }
%"struct.std::__detail::_List_node_base" = type { ptr, ptr }
%class.anon.72 = type { i8 }
%class.anon.74 = type { i8 }

@.str.4 = private unnamed_addr constant [129 x i8] c"generated/home/dtcxzyw/WorkSpace/Projects/compilers/llvm-opt-benchmark/bench/gromacs/gromacs/src/gromacs/selection/parsetree.cpp\00", align 1
@.str.18 = private unnamed_addr constant [26 x i8] c"method->type == STR_VALUE\00", align 1
@.str.19 = private unnamed_addr constant [60 x i8] c"String keyword method called for a non-string-valued method\00", align 1
@.str.20 = private unnamed_addr constant [23 x i8] c"args && !args->empty()\00", align 1
@.str.21 = private unnamed_addr constant [57 x i8] c"String keyword matching method called without any values\00", align 1

; Function Attrs: mustprogress nounwind uwtable
define linkonce_odr noundef nonnull align 8 dereferenceable(8) ptr @_ZNSt10_Head_baseILm0EPNSt7__cxx114listIN3gmx20SelectionParserValueESaIS3_EEELb0EE7_M_headERS7_(ptr noundef nonnull align 8 dereferenceable(8) %0) #4 comdat align 2 {
  %2 = alloca ptr, align 8
  store ptr %0, ptr %2, align 8, !tbaa !107
  %3 = load ptr, ptr %2, align 8, !tbaa !107
  %4 = getelementptr inbounds nuw %"struct.std::_Head_base.10", ptr %3, i32 0, i32 0
  ret ptr %4
}

; Function Attrs: mustprogress nounwind uwtable
define linkonce_odr noundef nonnull align 8 dereferenceable(8) ptr @_ZNSt11_Tuple_implILm0EJPNSt7__cxx114listIN3gmx20SelectionParserValueESaIS3_EEESt14default_deleteIS5_EEE7_M_headERS9_(ptr noundef nonnull align 8 dereferenceable(8) %0) #4 comdat align 2 {
  %2 = alloca ptr, align 8
  store ptr %0, ptr %2, align 8, !tbaa !105
  %3 = load ptr, ptr %2, align 8, !tbaa !105
  %4 = call noundef nonnull align 8 dereferenceable(8) ptr @_ZNSt10_Head_baseILm0EPNSt7__cxx114listIN3gmx20SelectionParserValueESaIS3_EEELb0EE7_M_headERS7_(ptr noundef nonnull align 8 dereferenceable(8) %3) #20
  ret ptr %4
}

; Function Attrs: mustprogress nounwind uwtable
define linkonce_odr noundef nonnull align 8 dereferenceable(8) ptr @_ZNSt10_Head_baseILm0EPNSt7__cxx114listIN3gmx20SelectionParserValueESaIS3_EEELb0EE7_M_headERKS7_(ptr noundef nonnull align 8 dereferenceable(8) %0) #4 comdat align 2 {
  %2 = alloca ptr, align 8
  store ptr %0, ptr %2, align 8, !tbaa !107
  %3 = load ptr, ptr %2, align 8, !tbaa !107
  %4 = getelementptr inbounds nuw %"struct.std::_Head_base.10", ptr %3, i32 0, i32 0
  ret ptr %4
}

; Function Attrs: mustprogress nounwind uwtable
define linkonce_odr noundef nonnull align 8 dereferenceable(8) ptr @_ZSt12__get_helperILm0EPNSt7__cxx114listIN3gmx20SelectionParserValueESaIS3_EEEJSt14default_deleteIS5_EEERT0_RSt11_Tuple_implIXT_EJS9_DpT1_EE(ptr noundef nonnull align 8 dereferenceable(8) %0) #4 comdat {
  %2 = alloca ptr, align 8
  store ptr %0, ptr %2, align 8, !tbaa !105
  %3 = load ptr, ptr %2, align 8, !tbaa !105
  %4 = call noundef nonnull align 8 dereferenceable(8) ptr @_ZNSt11_Tuple_implILm0EJPNSt7__cxx114listIN3gmx20SelectionParserValueESaIS3_EEESt14default_deleteIS5_EEE7_M_headERS9_(ptr noundef nonnull align 8 dereferenceable(8) %3) #20
  ret ptr %4
}

; Function Attrs: mustprogress nounwind uwtable
define linkonce_odr void @_ZNSt11_Tuple_implILm1EJSt14default_deleteINSt7__cxx114listIN3gmx20SelectionParserValueESaIS4_EEEEEEC2EOS8_(ptr noundef nonnull align 1 dereferenceable(1) %0, ptr noundef nonnull align 1 dereferenceable(1) %1) unnamed_addr #4 comdat align 2 {
  %3 = alloca ptr, align 8
  %4 = alloca ptr, align 8
  store ptr %0, ptr %3, align 8, !tbaa !112
  store ptr %1, ptr %4, align 8, !tbaa !112
  ret void
}

; Function Attrs: mustprogress nounwind uwtable
define linkonce_odr noundef nonnull align 8 dereferenceable(8) ptr @_ZNSt11_Tuple_implILm0EJPNSt7__cxx114listIN3gmx20SelectionParserValueESaIS3_EEESt14default_deleteIS5_EEE7_M_headERKS9_(ptr noundef nonnull align 8 dereferenceable(8) %0) #4 comdat align 2 {
  %2 = alloca ptr, align 8
  store ptr %0, ptr %2, align 8, !tbaa !105
  %3 = load ptr, ptr %2, align 8, !tbaa !105
  %4 = call noundef nonnull align 8 dereferenceable(8) ptr @_ZNSt10_Head_baseILm0EPNSt7__cxx114listIN3gmx20SelectionParserValueESaIS3_EEELb0EE7_M_headERKS7_(ptr noundef nonnull align 8 dereferenceable(8) %3) #20
  ret ptr %4
}

; Function Attrs: mustprogress nounwind uwtable
define linkonce_odr noundef nonnull align 8 dereferenceable(8) ptr @_ZSt3getILm0EJPNSt7__cxx114listIN3gmx20SelectionParserValueESaIS3_EEESt14default_deleteIS5_EEERNSt13tuple_elementIXT_ESt5tupleIJDpT0_EEE4typeERSD_(ptr noundef nonnull align 8 dereferenceable(8) %0) #4 comdat {
  %2 = alloca ptr, align 8
  store ptr %0, ptr %2, align 8, !tbaa !103
  %3 = load ptr, ptr %2, align 8, !tbaa !103
  %4 = call noundef nonnull align 8 dereferenceable(8) ptr @_ZSt12__get_helperILm0EPNSt7__cxx114listIN3gmx20SelectionParserValueESaIS3_EEEJSt14default_deleteIS5_EEERT0_RSt11_Tuple_implIXT_EJS9_DpT1_EE(ptr noundef nonnull align 8 dereferenceable(8) %3) #20
  ret ptr %4
}

; Function Attrs: mustprogress nounwind uwtable
define linkonce_odr void @_ZNSt11_Tuple_implILm0EJPNSt7__cxx114listIN3gmx20SelectionParserValueESaIS3_EEESt14default_deleteIS5_EEEC2EOS9_(ptr noundef nonnull align 8 dereferenceable(8) %0, ptr noundef nonnull align 8 dereferenceable(8) %1) unnamed_addr #4 comdat align 2 {
  %3 = alloca ptr, align 8
  %4 = alloca ptr, align 8
  store ptr %0, ptr %3, align 8, !tbaa !105
  store ptr %1, ptr %4, align 8, !tbaa !105
  %5 = load ptr, ptr %3, align 8
  %6 = load ptr, ptr %4, align 8, !tbaa !105
  call void @_ZNSt11_Tuple_implILm1EJSt14default_deleteINSt7__cxx114listIN3gmx20SelectionParserValueESaIS4_EEEEEEC2EOS8_(ptr noundef nonnull align 1 dereferenceable(1) %5, ptr noundef nonnull align 1 dereferenceable(1) %6) #20
  %7 = load ptr, ptr %4, align 8, !tbaa !105
  call void @llvm.memcpy.p0.p0.i64(ptr align 8 %5, ptr align 8 %7, i64 8, i1 false), !tbaa.struct !111
  ret void
}

; Function Attrs: mustprogress nounwind uwtable
define linkonce_odr noundef nonnull align 8 dereferenceable(8) ptr @_ZSt12__get_helperILm0EPNSt7__cxx114listIN3gmx20SelectionParserValueESaIS3_EEEJSt14default_deleteIS5_EEERKT0_RKSt11_Tuple_implIXT_EJS9_DpT1_EE(ptr noundef nonnull align 8 dereferenceable(8) %0) #4 comdat {
  %2 = alloca ptr, align 8
  store ptr %0, ptr %2, align 8, !tbaa !105
  %3 = load ptr, ptr %2, align 8, !tbaa !105
  %4 = call noundef nonnull align 8 dereferenceable(8) ptr @_ZNSt11_Tuple_implILm0EJPNSt7__cxx114listIN3gmx20SelectionParserValueESaIS3_EEESt14default_deleteIS5_EEE7_M_headERKS9_(ptr noundef nonnull align 8 dereferenceable(8) %3) #20
  ret ptr %4
}

; Function Attrs: mustprogress nounwind uwtable
define linkonce_odr noundef nonnull align 8 dereferenceable(8) ptr @_ZNSt15__uniq_ptr_implINSt7__cxx114listIN3gmx20SelectionParserValueESaIS3_EEESt14default_deleteIS5_EE6_M_ptrEv(ptr noundef nonnull align 8 dereferenceable(8) %0) #4 comdat align 2 {
  %2 = alloca ptr, align 8
  store ptr %0, ptr %2, align 8, !tbaa !99
  %3 = load ptr, ptr %2, align 8
  %4 = getelementptr inbounds nuw %"class.std::__uniq_ptr_impl", ptr %3, i32 0, i32 0
  %5 = call noundef nonnull align 8 dereferenceable(8) ptr @_ZSt3getILm0EJPNSt7__cxx114listIN3gmx20SelectionParserValueESaIS3_EEESt14default_deleteIS5_EEERNSt13tuple_elementIXT_ESt5tupleIJDpT0_EEE4typeERSD_(ptr noundef nonnull align 8 dereferenceable(8) %4) #20
  ret ptr %5
}

; Function Attrs: mustprogress nounwind uwtable
define linkonce_odr void @_ZNSt5tupleIJPNSt7__cxx114listIN3gmx20SelectionParserValueESaIS3_EEESt14default_deleteIS5_EEEC2EOS9_(ptr noundef nonnull align 8 dereferenceable(8) %0, ptr noundef nonnull align 8 dereferenceable(8) %1) unnamed_addr #4 comdat align 2 {
  %3 = alloca ptr, align 8
  %4 = alloca ptr, align 8
  store ptr %0, ptr %3, align 8, !tbaa !103
  store ptr %1, ptr %4, align 8, !tbaa !103
  %5 = load ptr, ptr %3, align 8
  %6 = load ptr, ptr %4, align 8, !tbaa !103
  call void @_ZNSt11_Tuple_implILm0EJPNSt7__cxx114listIN3gmx20SelectionParserValueESaIS3_EEESt14default_deleteIS5_EEEC2EOS9_(ptr noundef nonnull align 8 dereferenceable(8) %5, ptr noundef nonnull align 8 dereferenceable(8) %6) #20
  ret void
}

; Function Attrs: mustprogress nounwind uwtable
define linkonce_odr noundef nonnull align 8 dereferenceable(8) ptr @_ZSt3getILm0EJPNSt7__cxx114listIN3gmx20SelectionParserValueESaIS3_EEESt14default_deleteIS5_EEERKNSt13tuple_elementIXT_ESt5tupleIJDpT0_EEE4typeERKSD_(ptr noundef nonnull align 8 dereferenceable(8) %0) #4 comdat {
  %2 = alloca ptr, align 8
  store ptr %0, ptr %2, align 8, !tbaa !103
  %3 = load ptr, ptr %2, align 8, !tbaa !103
  %4 = call noundef nonnull align 8 dereferenceable(8) ptr @_ZSt12__get_helperILm0EPNSt7__cxx114listIN3gmx20SelectionParserValueESaIS3_EEEJSt14default_deleteIS5_EEERKT0_RKSt11_Tuple_implIXT_EJS9_DpT1_EE(ptr noundef nonnull align 8 dereferenceable(8) %3) #20
  ret ptr %4
}

; Function Attrs: mustprogress nounwind uwtable
define linkonce_odr void @_ZNSt15__uniq_ptr_implINSt7__cxx114listIN3gmx20SelectionParserValueESaIS3_EEESt14default_deleteIS5_EEC2EOS8_(ptr noundef nonnull align 8 dereferenceable(8) %0, ptr noundef nonnull align 8 dereferenceable(8) %1) unnamed_addr #4 comdat align 2 {
  %3 = alloca ptr, align 8
  %4 = alloca ptr, align 8
  store ptr %0, ptr %3, align 8, !tbaa !99
  store ptr %1, ptr %4, align 8, !tbaa !99
  %5 = load ptr, ptr %3, align 8
  %6 = getelementptr inbounds nuw %"class.std::__uniq_ptr_impl", ptr %5, i32 0, i32 0
  %7 = load ptr, ptr %4, align 8, !tbaa !99
  %8 = getelementptr inbounds nuw %"class.std::__uniq_ptr_impl", ptr %7, i32 0, i32 0
  call void @_ZNSt5tupleIJPNSt7__cxx114listIN3gmx20SelectionParserValueESaIS3_EEESt14default_deleteIS5_EEEC2EOS9_(ptr noundef nonnull align 8 dereferenceable(8) %6, ptr noundef nonnull align 8 dereferenceable(8) %8) #20
  %9 = load ptr, ptr %4, align 8, !tbaa !99
  %10 = call noundef nonnull align 8 dereferenceable(8) ptr @_ZNSt15__uniq_ptr_implINSt7__cxx114listIN3gmx20SelectionParserValueESaIS3_EEESt14default_deleteIS5_EE6_M_ptrEv(ptr noundef nonnull align 8 dereferenceable(8) %9) #20
  store ptr null, ptr %10, align 8, !tbaa !101
  ret void
}

; Function Attrs: mustprogress nounwind uwtable
define linkonce_odr noundef ptr @_ZNKSt15__uniq_ptr_implINSt7__cxx114listIN3gmx20SelectionParserValueESaIS3_EEESt14default_deleteIS5_EE6_M_ptrEv(ptr noundef nonnull align 8 dereferenceable(8) %0) #4 comdat align 2 {
  %2 = alloca ptr, align 8
  store ptr %0, ptr %2, align 8, !tbaa !99
  %3 = load ptr, ptr %2, align 8
  %4 = getelementptr inbounds nuw %"class.std::__uniq_ptr_impl", ptr %3, i32 0, i32 0
  %5 = call noundef nonnull align 8 dereferenceable(8) ptr @_ZSt3getILm0EJPNSt7__cxx114listIN3gmx20SelectionParserValueESaIS3_EEESt14default_deleteIS5_EEERKNSt13tuple_elementIXT_ESt5tupleIJDpT0_EEE4typeERKSD_(ptr noundef nonnull align 8 dereferenceable(8) %4) #20
  %6 = load ptr, ptr %5, align 8, !tbaa !101
  ret ptr %6
}

; Function Attrs: mustprogress nounwind uwtable
define linkonce_odr void @_ZNSt15__uniq_ptr_dataINSt7__cxx114listIN3gmx20SelectionParserValueESaIS3_EEESt14default_deleteIS5_ELb1ELb1EEC2EOS8_(ptr noundef nonnull align 8 dereferenceable(8) %0, ptr noundef nonnull align 8 dereferenceable(8) %1) unnamed_addr #4 comdat align 2 {
  %3 = alloca ptr, align 8
  %4 = alloca ptr, align 8
  store ptr %0, ptr %3, align 8, !tbaa !109
  store ptr %1, ptr %4, align 8, !tbaa !109
  %5 = load ptr, ptr %3, align 8
  %6 = load ptr, ptr %4, align 8, !tbaa !109
  call void @_ZNSt15__uniq_ptr_implINSt7__cxx114listIN3gmx20SelectionParserValueESaIS3_EEESt14default_deleteIS5_EEC2EOS8_(ptr noundef nonnull align 8 dereferenceable(8) %5, ptr noundef nonnull align 8 dereferenceable(8) %6) #20
  ret void
}

; Function Attrs: mustprogress nounwind uwtable
define linkonce_odr noundef ptr @_ZNKSt10unique_ptrINSt7__cxx114listIN3gmx20SelectionParserValueESaIS3_EEESt14default_deleteIS5_EE3getEv(ptr noundef nonnull align 8 dereferenceable(8) %0) #4 comdat align 2 {
  %2 = alloca ptr, align 8
  store ptr %0, ptr %2, align 8, !tbaa !90
  %3 = load ptr, ptr %2, align 8
  %4 = getelementptr inbounds nuw %"class.std::unique_ptr", ptr %3, i32 0, i32 0
  %5 = call noundef ptr @_ZNKSt15__uniq_ptr_implINSt7__cxx114listIN3gmx20SelectionParserValueESaIS3_EEESt14default_deleteIS5_EE6_M_ptrEv(ptr noundef nonnull align 8 dereferenceable(8) %4) #20
  ret ptr %5
}

; Function Attrs: mustprogress nounwind uwtable
define linkonce_odr void @_ZNSt10unique_ptrINSt7__cxx114listIN3gmx20SelectionParserValueESaIS3_EEESt14default_deleteIS5_EEC2EOS8_(ptr noundef nonnull align 8 dereferenceable(8) %0, ptr noundef nonnull align 8 dereferenceable(8) %1) unnamed_addr #4 comdat align 2 {
  %3 = alloca ptr, align 8
  %4 = alloca ptr, align 8
  store ptr %0, ptr %3, align 8, !tbaa !90
  store ptr %1, ptr %4, align 8, !tbaa !90
  %5 = load ptr, ptr %3, align 8
  %6 = getelementptr inbounds nuw %"class.std::unique_ptr", ptr %5, i32 0, i32 0
  %7 = load ptr, ptr %4, align 8, !tbaa !90
  %8 = getelementptr inbounds nuw %"class.std::unique_ptr", ptr %7, i32 0, i32 0
  call void @_ZNSt15__uniq_ptr_dataINSt7__cxx114listIN3gmx20SelectionParserValueESaIS3_EEESt14default_deleteIS5_ELb1ELb1EEC2EOS8_(ptr noundef nonnull align 8 dereferenceable(8) %6, ptr noundef nonnull align 8 dereferenceable(8) %8) #20
  ret void
}

; Function Attrs: inlinehint mustprogress uwtable
define internal void @"_ZZ30_gmx_sel_init_keyword_strmatchP19gmx_ana_selmethod_tN3gmx24SelectionStringMatchTypeESt10unique_ptrINSt7__cxx114listINS1_20SelectionParserValueESaIS6_EEESt14default_deleteIS8_EEPKcPvENK3$_1clEv"(ptr noundef nonnull align 1 dereferenceable(1) %0) #10 align 2 {
  %2 = alloca ptr, align 8
  store ptr %0, ptr %2, align 8, !tbaa !4
  call void @_ZN3gmx8internal13assertHandlerEPKcS2_S2_S2_i(ptr noundef @.str.20, ptr noundef @.str.21, ptr noundef @"__PRETTY_FUNCTION__._ZZ30_gmx_sel_init_keyword_strmatchP19gmx_ana_selmethod_tN3gmx24SelectionStringMatchTypeESt10unique_ptrINSt7__cxx114listINS1_20SelectionParserValueESaIS6_EEESt14default_deleteIS8_EEPKcPvENK3$_0clEv", ptr noundef @.str.4, i32 noundef 754) #23
  unreachable
}

; Function Attrs: mustprogress nounwind uwtable
define linkonce_odr noundef zeroext i1 @_ZNKSt7__cxx114listIN3gmx20SelectionParserValueESaIS2_EE5emptyEv(ptr noundef nonnull align 8 dereferenceable(24) %0) #4 comdat align 2 {
  %2 = alloca ptr, align 8
  store ptr %0, ptr %2, align 8, !tbaa !101
  %3 = load ptr, ptr %2, align 8
  %4 = getelementptr inbounds nuw %"class.std::__cxx11::_List_base", ptr %3, i32 0, i32 0
  %5 = getelementptr inbounds nuw %"struct.std::__cxx11::_List_base<gmx::SelectionParserValue, std::allocator<gmx::SelectionParserValue>>::_List_impl", ptr %4, i32 0, i32 0
  %6 = getelementptr inbounds nuw %"struct.std::__detail::_List_node_base", ptr %5, i32 0, i32 0
  %7 = load ptr, ptr %6, align 8, !tbaa !127
  %8 = getelementptr inbounds nuw %"class.std::__cxx11::_List_base", ptr %3, i32 0, i32 0
  %9 = getelementptr inbounds nuw %"struct.std::__cxx11::_List_base<gmx::SelectionParserValue, std::allocator<gmx::SelectionParserValue>>::_List_impl", ptr %8, i32 0, i32 0
  %10 = icmp eq ptr %7, %9
  ret i1 %10
}

; Function Attrs: mustprogress nounwind uwtable
define linkonce_odr noundef ptr @_ZNKSt10unique_ptrINSt7__cxx114listIN3gmx20SelectionParserValueESaIS3_EEESt14default_deleteIS5_EEptEv(ptr noundef nonnull align 8 dereferenceable(8) %0) #4 comdat align 2 {
  %2 = alloca ptr, align 8
  store ptr %0, ptr %2, align 8, !tbaa !90
  %3 = load ptr, ptr %2, align 8
  %4 = call noundef ptr @_ZNKSt10unique_ptrINSt7__cxx114listIN3gmx20SelectionParserValueESaIS3_EEESt14default_deleteIS5_EE3getEv(ptr noundef nonnull align 8 dereferenceable(8) %3) #20
  ret ptr %4
}

; Function Attrs: mustprogress nounwind uwtable
define linkonce_odr noundef zeroext i1 @_ZNKSt10unique_ptrINSt7__cxx114listIN3gmx20SelectionParserValueESaIS3_EEESt14default_deleteIS5_EEcvbEv(ptr noundef nonnull align 8 dereferenceable(8) %0) #4 comdat align 2 {
  %2 = alloca ptr, align 8
  store ptr %0, ptr %2, align 8, !tbaa !90
  %3 = load ptr, ptr %2, align 8
  %4 = call noundef ptr @_ZNKSt10unique_ptrINSt7__cxx114listIN3gmx20SelectionParserValueESaIS3_EEESt14default_deleteIS5_EE3getEv(ptr noundef nonnull align 8 dereferenceable(8) %3) #20
  %5 = icmp eq ptr %4, null
  %6 = select i1 %5, i1 false, i1 true
  ret i1 %6
}

; Function Attrs: inlinehint mustprogress uwtable
define internal void @"_ZZ30_gmx_sel_init_keyword_strmatchP19gmx_ana_selmethod_tN3gmx24SelectionStringMatchTypeESt10unique_ptrINSt7__cxx114listINS1_20SelectionParserValueESaIS6_EEESt14default_deleteIS8_EEPKcPvENK3$_0clEv"(ptr noundef nonnull align 1 dereferenceable(1) %0) #10 align 2 {
  %2 = alloca ptr, align 8
  store ptr %0, ptr %2, align 8, !tbaa !4
  call void @_ZN3gmx8internal13assertHandlerEPKcS2_S2_S2_i(ptr noundef @.str.18, ptr noundef @.str.19, ptr noundef @"__PRETTY_FUNCTION__._ZZ30_gmx_sel_init_keyword_strmatchP19gmx_ana_selmethod_tN3gmx24SelectionStringMatchTypeESt10unique_ptrINSt7__cxx114listINS1_20SelectionParserValueESaIS6_EEESt14default_deleteIS8_EEPKcPvENK3$_0clEv", ptr noundef @.str.4, i32 noundef 752) #23
  unreachable
}

; Function Attrs: mustprogress uwtable
define void @_Z30_gmx_sel_init_keyword_strmatchP19gmx_ana_selmethod_tN3gmx24SelectionStringMatchTypeESt10unique_ptrINSt7__cxx114listINS1_20SelectionParserValueESaIS6_EEESt14default_deleteIS8_EEPKcPv(ptr dead_on_unwind noalias writable sret(%"class.std::shared_ptr.0") align 8 %0, ptr noundef %1, i32 noundef %2, ptr noundef %3, ptr noundef %4, ptr noundef %5) #0 personality ptr @__gxx_personality_v0 {
  %7 = alloca ptr, align 8
  %8 = alloca ptr, align 8
  %9 = alloca i32, align 4
  %10 = alloca ptr, align 8
  %11 = alloca ptr, align 8
  %12 = alloca ptr, align 8
  %13 = alloca %class.anon.72, align 1
  %14 = alloca %class.anon.74, align 1
  %15 = alloca %"class.std::unique_ptr", align 8
  %16 = alloca ptr, align 8
  %17 = alloca i32, align 4
  store ptr %0, ptr %7, align 8
  store ptr %1, ptr %8, align 8, !tbaa !223
  store i32 %2, ptr %9, align 4, !tbaa !288
  store ptr %3, ptr %10, align 8, !tbaa !90
  store ptr %4, ptr %11, align 8, !tbaa !30
  store ptr %5, ptr %12, align 8, !tbaa !4
  %18 = load ptr, ptr %8, align 8, !tbaa !223
  %19 = getelementptr inbounds nuw %struct.gmx_ana_selmethod_t, ptr %18, i32 0, i32 1
  %20 = load i32, ptr %19, align 8, !tbaa !225
  %21 = icmp eq i32 %20, 3
  call void @llvm.lifetime.start.p0(i64 1, ptr %13) #20
  br i1 %21, label %22, label %23

22:                                               ; preds = %6
  br label %24

23:                                               ; preds = %6
  call void @"_ZZ30_gmx_sel_init_keyword_strmatchP19gmx_ana_selmethod_tN3gmx24SelectionStringMatchTypeESt10unique_ptrINSt7__cxx114listINS1_20SelectionParserValueESaIS6_EEESt14default_deleteIS8_EEPKcPvENK3$_0clEv"(ptr noundef nonnull align 1 dereferenceable(1) %13)
  br label %24

24:                                               ; preds = %23, %22
  call void @llvm.lifetime.end.p0(i64 1, ptr %13) #20
  %25 = call noundef zeroext i1 @_ZNKSt10unique_ptrINSt7__cxx114listIN3gmx20SelectionParserValueESaIS3_EEESt14default_deleteIS5_EEcvbEv(ptr noundef nonnull align 8 dereferenceable(8) %3) #20
  call void @llvm.lifetime.start.p0(i64 1, ptr %14) #20
  br i1 %25, label %26, label %30

26:                                               ; preds = %24
  %27 = call noundef ptr @_ZNKSt10unique_ptrINSt7__cxx114listIN3gmx20SelectionParserValueESaIS3_EEESt14default_deleteIS5_EEptEv(ptr noundef nonnull align 8 dereferenceable(8) %3) #20
  %28 = call noundef zeroext i1 @_ZNKSt7__cxx114listIN3gmx20SelectionParserValueESaIS2_EE5emptyEv(ptr noundef nonnull align 8 dereferenceable(24) %27) #20
  br i1 %28, label %30, label %29

29:                                               ; preds = %26
  br label %31

30:                                               ; preds = %26, %24
  call void @"_ZZ30_gmx_sel_init_keyword_strmatchP19gmx_ana_selmethod_tN3gmx24SelectionStringMatchTypeESt10unique_ptrINSt7__cxx114listINS1_20SelectionParserValueESaIS6_EEESt14default_deleteIS8_EEPKcPvENK3$_1clEv"(ptr noundef nonnull align 1 dereferenceable(1) %14)
  br label %31

31:                                               ; preds = %30, %29
  call void @llvm.lifetime.end.p0(i64 1, ptr %14) #20
  %32 = load ptr, ptr %8, align 8, !tbaa !223
  %33 = load i32, ptr %9, align 4, !tbaa !288
  call void @_ZNSt10unique_ptrINSt7__cxx114listIN3gmx20SelectionParserValueESaIS3_EEESt14default_deleteIS5_EEC2EOS8_(ptr noundef nonnull align 8 dereferenceable(8) %15, ptr noundef nonnull align 8 dereferenceable(8) %3) #20
  %34 = load ptr, ptr %11, align 8, !tbaa !30
  %35 = load ptr, ptr %12, align 8, !tbaa !4
  invoke void @_ZL21init_keyword_internalP19gmx_ana_selmethod_tN3gmx24SelectionStringMatchTypeESt10unique_ptrINSt7__cxx114listINS1_20SelectionParserValueESaIS6_EEESt14default_deleteIS8_EEPKcPv(ptr dead_on_unwind writable sret(%"class.std::shared_ptr.0") align 8 %0, ptr noundef %32, i32 noundef %33, ptr noundef %15, ptr noundef %34, ptr noundef %35)
          to label %36 unwind label %37

36:                                               ; preds = %31
  call void @_ZNSt10unique_ptrINSt7__cxx114listIN3gmx20SelectionParserValueESaIS3_EEESt14default_deleteIS5_EED2Ev(ptr noundef nonnull align 8 dereferenceable(8) %15) #20
  ret void

37:                                               ; preds = %31
  %38 = landingpad { ptr, i32 }
          cleanup
  %39 = extractvalue { ptr, i32 } %38, 0
  store ptr %39, ptr %16, align 8
  %40 = extractvalue { ptr, i32 } %38, 1
  store i32 %40, ptr %17, align 4
  call void @_ZNSt10unique_ptrINSt7__cxx114listIN3gmx20SelectionParserValueESaIS3_EEESt14default_deleteIS5_EED2Ev(ptr noundef nonnull align 8 dereferenceable(8) %15) #20
  br label %41

41:                                               ; preds = %37
  %42 = load ptr, ptr %16, align 8
  %43 = load i32, ptr %17, align 4
  %44 = insertvalue { ptr, i32 } poison, ptr %42, 0
  %45 = insertvalue { ptr, i32 } %44, i32 %43, 1
  resume { ptr, i32 } %45
}