; Function Attrs: mustprogress uwtable
define void @_Z30_gmx_sel_init_keyword_strmatchP19gmx_ana_selmethod_tN3gmx24SelectionStringMatchTypeESt10unique_ptrINSt7__cxx114listINS1_20SelectionParserValueESaIS6_EEESt14default_deleteIS8_EEPKcPv(ptr dead_on_unwind noalias writable sret(%"class.std::shared_ptr.0") align 8 %0, ptr noundef readonly captures(none) %1, i32 noundef %2, ptr noundef captures(none) %3, ptr noundef %4, ptr noundef %5) local_unnamed_addr #0 personality ptr @__gxx_personality_v0 {
  %7 = alloca %"class.std::unique_ptr", align 8
  %8 = getelementptr inbounds nuw i8, ptr %1, i64 8
  %9 = load i32, ptr %8, align 8, !tbaa !93
  %10 = icmp eq i32 %9, 3
  br i1 %10, label %12, label %11

11:                                               ; preds = %6
  tail call void @_ZN3gmx8internal13assertHandlerEPKcS2_S2_S2_i(ptr noundef nonnull @.str.18, ptr noundef nonnull @.str.19, ptr noundef nonnull @"__PRETTY_FUNCTION__._ZZ30_gmx_sel_init_keyword_strmatchP19gmx_ana_selmethod_tN3gmx24SelectionStringMatchTypeESt10unique_ptrINSt7__cxx114listINS1_20SelectionParserValueESaIS6_EEESt14default_deleteIS8_EEPKcPvENK3$_0clEv", ptr noundef nonnull @.str.4, i32 noundef 752) #27
  unreachable

12:                                               ; preds = %6
  %13 = load ptr, ptr %3, align 8
  %.not = icmp eq ptr %13, null
  %14 = ptrtoint ptr %13 to i64
  br i1 %.not, label %18, label %15

15:                                               ; preds = %12
  %16 = load ptr, ptr %13, align 8, !tbaa !50
  %17 = icmp eq ptr %16, %13
  br i1 %17, label %18, label %19

18:                                               ; preds = %15, %12
  tail call void @_ZN3gmx8internal13assertHandlerEPKcS2_S2_S2_i(ptr noundef nonnull @.str.20, ptr noundef nonnull @.str.21, ptr noundef nonnull @"__PRETTY_FUNCTION__._ZZ30_gmx_sel_init_keyword_strmatchP19gmx_ana_selmethod_tN3gmx24SelectionStringMatchTypeESt10unique_ptrINSt7__cxx114listINS1_20SelectionParserValueESaIS6_EEESt14default_deleteIS8_EEPKcPvENK3$_0clEv", ptr noundef nonnull @.str.4, i32 noundef 754) #27
  unreachable

19:                                               ; preds = %15
  store i64 %14, ptr %7, align 8, !tbaa !42
  store ptr null, ptr %3, align 8, !tbaa !42
  invoke fastcc void @_ZL21init_keyword_internalP19gmx_ana_selmethod_tN3gmx24SelectionStringMatchTypeESt10unique_ptrINSt7__cxx114listINS1_20SelectionParserValueESaIS6_EEESt14default_deleteIS8_EEPKcPv(ptr dead_on_unwind noalias writable align 8 %0, ptr noundef nonnull %1, i32 noundef %2, ptr noundef %7, ptr noundef %4, ptr noundef %5)
          to label %20 unwind label %22

20:                                               ; preds = %19
  %21 = load ptr, ptr %7, align 8, !tbaa !42
  %.not.i = icmp eq ptr %21, null
  br i1 %.not.i, label %_ZNSt10unique_ptrINSt7__cxx114listIN3gmx20SelectionParserValueESaIS3_EEESt14default_deleteIS5_EED2Ev.exit, label %_ZNKSt14default_deleteINSt7__cxx114listIN3gmx20SelectionParserValueESaIS3_EEEEclEPS5_.exit.i

_ZNKSt14default_deleteINSt7__cxx114listIN3gmx20SelectionParserValueESaIS3_EEEEclEPS5_.exit.i: ; preds = %20
  tail call void @_ZNSt7__cxx1110_List_baseIN3gmx20SelectionParserValueESaIS2_EE8_M_clearEv(ptr noundef nonnull align 8 dereferenceable(24) %21) #24
  tail call void @_ZdlPvm(ptr noundef nonnull %21, i64 noundef 24) #25
  br label %_ZNSt10unique_ptrINSt7__cxx114listIN3gmx20SelectionParserValueESaIS3_EEESt14default_deleteIS5_EED2Ev.exit

_ZNSt10unique_ptrINSt7__cxx114listIN3gmx20SelectionParserValueESaIS3_EEESt14default_deleteIS5_EED2Ev.exit: ; preds = %20, %_ZNKSt14default_deleteINSt7__cxx114listIN3gmx20SelectionParserValueESaIS3_EEEEclEPS5_.exit.i
  ret void

22:                                               ; preds = %19
  %23 = landingpad { ptr, i32 }
          cleanup
  call void @_ZNSt10unique_ptrINSt7__cxx114listIN3gmx20SelectionParserValueESaIS3_EEESt14default_deleteIS5_EED2Ev(ptr noundef nonnull align 8 dereferenceable(8) %7) #24
  resume { ptr, i32 } %23
}